target datalayout = "e-m:e-p270:32:32-p271:32:32-p272:64:64-i64:64-i128:128-f80:128-n8:16:32:64-S128"
target triple = "x86_64-pc-linux-gnu"

; Function Attrs: nounwind uwtable
define dso_local void @mda_get_offset_values(i32 noundef %0, ptr noundef %1, ptr noundef %2, ptr noundef %3) #0 {
  %5 = alloca i32, align 4
  %6 = alloca ptr, align 8
  %7 = alloca ptr, align 8
  %8 = alloca ptr, align 8
  %9 = alloca i32, align 4
  %10 = alloca i32, align 4
  store i32 %0, ptr %5, align 4
  store ptr %1, ptr %6, align 8
  store ptr %2, ptr %7, align 8
  store ptr %3, ptr %8, align 8
  call void @llvm.lifetime.start.p0(i64 4, ptr %9) #6
  call void @llvm.lifetime.start.p0(i64 4, ptr %10) #6
  %11 = load ptr, ptr %6, align 8
  %12 = load i32, ptr %5, align 4
  %13 = sub i32 %12, 1
  %14 = sext i32 %13 to i64
  %15 = getelementptr inbounds i32, ptr %11, i64 %14
  store i32 0, ptr %15, align 4
  %16 = load i32, ptr %5, align 4
  %17 = sub i32 %16, 2
  store i32 %17, ptr %10, align 4
  br label %18

18:                                               ; preds = %61, %4
  %19 = load i32, ptr %10, align 4
  %20 = icmp sge i32 %19, 0
  br i1 %20, label %21, label %64

21:                                               ; preds = %18
  %22 = load ptr, ptr %7, align 8
  %23 = load i32, ptr %10, align 4
  %24 = sext i32 %23 to i64
  %25 = getelementptr inbounds i32, ptr %22, i64 %24
  %26 = load i32, ptr %25, align 4
  %27 = sub i32 %26, 1
  %28 = load ptr, ptr %6, align 8
  %29 = load i32, ptr %10, align 4
  %30 = sext i32 %29 to i64
  %31 = getelementptr inbounds i32, ptr %28, i64 %30
  store i32 %27, ptr %31, align 4
  %32 = load i32, ptr %10, align 4
  %33 = add i32 %32, 1
  store i32 %33, ptr %9, align 4
  br label %34

34:                                               ; preds = %57, %21
  %35 = load i32, ptr %9, align 4
  %36 = load i32, ptr %5, align 4
  %37 = icmp slt i32 %35, %36
  br i1 %37, label %38, label %60

38:                                               ; preds = %34
  %39 = load ptr, ptr %8, align 8
  %40 = load i32, ptr %9, align 4
  %41 = sext i32 %40 to i64
  %42 = getelementptr inbounds i32, ptr %39, i64 %41
  %43 = load i32, ptr %42, align 4
  %44 = sub i32 %43, 1
  %45 = load ptr, ptr %7, align 8
  %46 = load i32, ptr %9, align 4
  %47 = sext i32 %46 to i64
  %48 = getelementptr inbounds i32, ptr %45, i64 %47
  %49 = load i32, ptr %48, align 4
  %50 = mul i32 %44, %49
  %51 = load ptr, ptr %6, align 8
  %52 = load i32, ptr %10, align 4
  %53 = sext i32 %52 to i64
  %54 = getelementptr inbounds i32, ptr %51, i64 %53
  %55 = load i32, ptr %54, align 4
  %56 = sub i32 %55, %50
  store i32 %56, ptr %54, align 4
  br label %57

57:                                               ; preds = %38
  %58 = load i32, ptr %9, align 4
  %59 = add i32 %58, 1
  store i32 %59, ptr %9, align 4
  br label %34, !llvm.loop !10

60:                                               ; preds = %34
  br label %61

61:                                               ; preds = %60
  %62 = load i32, ptr %10, align 4
  %63 = add i32 %62, -1
  store i32 %63, ptr %10, align 4
  br label %18, !llvm.loop !11

64:                                               ; preds = %18
  call void @llvm.lifetime.end.p0(i64 4, ptr %10) #6
  call void @llvm.lifetime.end.p0(i64 4, ptr %9) #6
  ret void
}