; Function Attrs: nofree norecurse nosync nounwind memory(argmem: readwrite) uwtable
define dso_local void @mda_get_offset_values(i32 noundef %0, ptr noundef writeonly captures(none) %1, ptr noundef readonly captures(none) %2, ptr noundef readonly captures(none) %3) local_unnamed_addr #4 {
  %5 = add i32 %0, -1
  %6 = sext i32 %5 to i64
  %7 = getelementptr inbounds i32, ptr %1, i64 %6
  store i32 0, ptr %7, align 4
  %8 = add i32 %0, -2
  %9 = icmp sgt i32 %8, -1
  br i1 %9, label %.lr.ph24.preheader, label %._crit_edge25

.lr.ph24.preheader:                               ; preds = %4
  %10 = zext nneg i32 %8 to i64
  br label %.lr.ph24

.lr.ph24:                                         ; preds = %.lr.ph24.preheader, %._crit_edge
  %indvars.iv29 = phi i64 [ %10, %.lr.ph24.preheader ], [ %indvars.iv.next30, %._crit_edge ]
  %indvars.iv = phi i32 [ %5, %.lr.ph24.preheader ], [ %indvars.iv.next, %._crit_edge ]
  %11 = getelementptr inbounds nuw i32, ptr %2, i64 %indvars.iv29
  %12 = load i32, ptr %11, align 4
  %13 = add i32 %12, -1
  %14 = getelementptr inbounds nuw i32, ptr %1, i64 %indvars.iv29
  store i32 %13, ptr %14, align 4
  %15 = trunc i64 %indvars.iv29 to i32
  %16 = add i32 %15, 1
  %17 = icmp slt i32 %16, %0
  br i1 %17, label %.lr.ph.preheader, label %._crit_edge

.lr.ph.preheader:                                 ; preds = %.lr.ph24
  %18 = sext i32 %indvars.iv to i64
  br label %.lr.ph

.lr.ph:                                           ; preds = %.lr.ph.preheader, %.lr.ph
  %indvars.iv26 = phi i64 [ %18, %.lr.ph.preheader ], [ %indvars.iv.next27, %.lr.ph ]
  %storemerge20 = phi i32 [ %13, %.lr.ph.preheader ], [ %25, %.lr.ph ]
  %19 = getelementptr inbounds i32, ptr %3, i64 %indvars.iv26
  %20 = load i32, ptr %19, align 4
  %21 = add i32 %20, -1
  %22 = getelementptr inbounds i32, ptr %2, i64 %indvars.iv26
  %23 = load i32, ptr %22, align 4
  %24 = mul i32 %21, %23
  %25 = sub i32 %storemerge20, %24
  store i32 %25, ptr %14, align 4
  %indvars.iv.next27 = add nsw i64 %indvars.iv26, 1
  %lftr.wideiv = trunc i64 %indvars.iv.next27 to i32
  %exitcond.not = icmp eq i32 %0, %lftr.wideiv
  br i1 %exitcond.not, label %._crit_edge, label %.lr.ph, !llvm.loop !10

._crit_edge:                                      ; preds = %.lr.ph, %.lr.ph24
  %indvars.iv.next30 = add nsw i64 %indvars.iv29, -1
  %26 = icmp sgt i64 %indvars.iv29, 0
  %indvars.iv.next = add i32 %indvars.iv, -1
  br i1 %26, label %.lr.ph24, label %._crit_edge25, !llvm.loop !11

._crit_edge25:                                    ; preds = %._crit_edge, %4
  ret void
}